; Function Attrs: mustprogress uwtable
define hidden noundef nonnull align 8 dereferenceable(40) ptr @_ZN3p2t5Sweep10PointEventERNS_12SweepContextERNS_5PointE(ptr noundef nonnull align 8 dereferenceable(24) %0, ptr noundef nonnull align 8 dereferenceable(200) %1, ptr noundef nonnull align 8 dereferenceable(40) %2) local_unnamed_addr #2 align 2 personality ptr @__gxx_personality_v0 {
  %4 = tail call noundef ptr @_ZN3p2t12SweepContext10LocateNodeERKNS_5PointE(ptr noundef nonnull align 8 dereferenceable(200) %1, ptr noundef nonnull align 8 dereferenceable(40) %2)
  %.not = icmp eq ptr %4, null
  br i1 %.not, label %12, label %5

5:                                                ; preds = %3
  %6 = load ptr, ptr %4, align 8
  %.not20 = icmp eq ptr %6, null
  br i1 %.not20, label %12, label %7

7:                                                ; preds = %5
  %8 = getelementptr inbounds nuw i8, ptr %4, i64 16
  %9 = load ptr, ptr %8, align 8
  %.not21 = icmp eq ptr %9, null
  br i1 %.not21, label %12, label %10

10:                                               ; preds = %7
  %11 = load ptr, ptr %9, align 8
  %.not22 = icmp eq ptr %11, null
  br i1 %.not22, label %12, label %17

12:                                               ; preds = %10, %7, %5, %3
  %13 = tail call ptr @__cxa_allocate_exception(i64 16) #20
  invoke void @_ZNSt13runtime_errorC1EPKc(ptr noundef nonnull align 8 dereferenceable(16) %13, ptr noundef nonnull @.str)
          to label %14 unwind label %15

14:                                               ; preds = %12
  tail call void @__cxa_throw(ptr nonnull %13, ptr nonnull @_ZTISt13runtime_error, ptr nonnull @_ZNSt13runtime_errorD1Ev) #21
  unreachable

15:                                               ; preds = %12
  %16 = landingpad { ptr, i32 }
          cleanup
  tail call void @__cxa_free_exception(ptr nonnull %13) #20
  resume { ptr, i32 } %16

17:                                               ; preds = %10
  %18 = tail call noundef nonnull align 8 dereferenceable(40) ptr @_ZN3p2t5Sweep16NewFrontTriangleERNS_12SweepContextERNS_5PointERNS_4NodeE(ptr noundef nonnull align 8 dereferenceable(24) %0, ptr noundef nonnull align 8 dereferenceable(200) %1, ptr noundef nonnull align 8 dereferenceable(40) %2, ptr noundef nonnull align 8 dereferenceable(40) %4)
  %19 = load double, ptr %2, align 8
  %20 = load ptr, ptr %4, align 8
  %21 = load double, ptr %20, align 8
  %22 = fadd double %21, 0x3D719799812DEA11
  %23 = fcmp ugt double %19, %22
  br i1 %23, label %25, label %24

24:                                               ; preds = %17
  tail call void @_ZN3p2t5Sweep4FillERNS_12SweepContextERNS_4NodeE(ptr noundef nonnull align 8 dereferenceable(24) %0, ptr noundef nonnull align 8 dereferenceable(200) %1, ptr noundef nonnull align 8 dereferenceable(40) %4)
  br label %25

25:                                               ; preds = %24, %17
  tail call void @_ZN3p2t5Sweep18FillAdvancingFrontERNS_12SweepContextERNS_4NodeE(ptr noundef nonnull align 8 dereferenceable(24) %0, ptr noundef nonnull align 8 dereferenceable(200) %1, ptr noundef nonnull align 8 dereferenceable(40) %18)
  ret ptr %18
}